(dp0
S'published_date'
p1
ctime
struct_time
p2
((I2009
I3
I27
I22
I20
I42
I4
I86
I-1
tp3
(dp4
tp5
Rp6
sS'comments_link'
p7
NsS'internal_id'
p8
S'\xde\xd5\xb4\xf8'
p9
sS'tags'
p10
(S'diveintopython'
p11
S'docbook'
p12
S'html'
p13
tp14
sS'title'
p15
S'Dive into history, 2009 edition'
p16
sS'article_link'
p17
S'http://diveintomark.org/archives/2009/03/27/dive-into-history-2009-edition'
p18
sS'published'
p19
I01
s.